target datalayout = "e-m:e-p270:32:32-p271:32:32-p272:64:64-i64:64-i128:128-f80:128-n8:16:32:64-S128"
target triple = "x86_64-pc-linux-gnu"

%struct.ossl_encoder_st = type { %struct.ossl_endecode_base_st, ptr, ptr, ptr, ptr, ptr, ptr, ptr, ptr, ptr, ptr }
%struct.ossl_endecode_base_st = type { ptr, i32, ptr, ptr, ptr, %struct.CRYPTO_REF_COUNT }
%struct.CRYPTO_REF_COUNT = type { i32 }
%struct.ossl_encoder_instance_st = type { ptr, ptr, ptr, ptr }

@.str = private unnamed_addr constant [46 x i8] c"../openssl/crypto/encode_decode/encoder_lib.c\00", align 1

; Function Attrs: nounwind uwtable
define void @ossl_encoder_instance_free(ptr noundef %0) #0 {
  %2 = alloca ptr, align 8
  store ptr %0, ptr %2, align 8, !tbaa !26
  %3 = load ptr, ptr %2, align 8, !tbaa !26
  %4 = icmp ne ptr %3, null
  br i1 %4, label %5, label %28

5:                                                ; preds = %1
  %6 = load ptr, ptr %2, align 8, !tbaa !26
  %7 = getelementptr inbounds nuw %struct.ossl_encoder_instance_st, ptr %6, i32 0, i32 0
  %8 = load ptr, ptr %7, align 8, !tbaa !69
  %9 = icmp ne ptr %8, null
  br i1 %9, label %10, label %19

10:                                               ; preds = %5
  %11 = load ptr, ptr %2, align 8, !tbaa !26
  %12 = getelementptr inbounds nuw %struct.ossl_encoder_instance_st, ptr %11, i32 0, i32 0
  %13 = load ptr, ptr %12, align 8, !tbaa !69
  %14 = getelementptr inbounds nuw %struct.ossl_encoder_st, ptr %13, i32 0, i32 2
  %15 = load ptr, ptr %14, align 8, !tbaa !71
  %16 = load ptr, ptr %2, align 8, !tbaa !26
  %17 = getelementptr inbounds nuw %struct.ossl_encoder_instance_st, ptr %16, i32 0, i32 1
  %18 = load ptr, ptr %17, align 8, !tbaa !72
  call void %15(ptr noundef %18)
  br label %19

19:                                               ; preds = %10, %5
  %20 = load ptr, ptr %2, align 8, !tbaa !26
  %21 = getelementptr inbounds nuw %struct.ossl_encoder_instance_st, ptr %20, i32 0, i32 1
  store ptr null, ptr %21, align 8, !tbaa !72
  %22 = load ptr, ptr %2, align 8, !tbaa !26
  %23 = getelementptr inbounds nuw %struct.ossl_encoder_instance_st, ptr %22, i32 0, i32 0
  %24 = load ptr, ptr %23, align 8, !tbaa !69
  call void @OSSL_ENCODER_free(ptr noundef %24)
  %25 = load ptr, ptr %2, align 8, !tbaa !26
  %26 = getelementptr inbounds nuw %struct.ossl_encoder_instance_st, ptr %25, i32 0, i32 0
  store ptr null, ptr %26, align 8, !tbaa !69
  %27 = load ptr, ptr %2, align 8, !tbaa !26
  call void @CRYPTO_free(ptr noundef %27, ptr noundef @.str, i32 noundef 276)
  br label %28

28:                                               ; preds = %19, %1
  ret void
}