; Function Attrs: nounwind uwtable
define void @ossl_encoder_instance_free(ptr noundef %0) local_unnamed_addr #0 {
  %.not = icmp eq ptr %0, null
  br i1 %.not, label %12, label %2

2:                                                ; preds = %1
  %3 = load ptr, ptr %0, align 8, !tbaa !25
  %.not9 = icmp eq ptr %3, null
  br i1 %.not9, label %9, label %4

4:                                                ; preds = %2
  %5 = getelementptr inbounds nuw i8, ptr %3, i64 56
  %6 = load ptr, ptr %5, align 8, !tbaa !60
  %7 = getelementptr inbounds nuw i8, ptr %0, i64 8
  %8 = load ptr, ptr %7, align 8, !tbaa !28
  tail call void %6(ptr noundef %8) #8
  %.pre = load ptr, ptr %0, align 8, !tbaa !25
  br label %9

9:                                                ; preds = %4, %2
  %10 = phi ptr [ %.pre, %4 ], [ null, %2 ]
  %11 = getelementptr inbounds nuw i8, ptr %0, i64 8
  store ptr null, ptr %11, align 8, !tbaa !28
  tail call void @OSSL_ENCODER_free(ptr noundef %10) #8
  store ptr null, ptr %0, align 8, !tbaa !25
  tail call void @CRYPTO_free(ptr noundef nonnull %0, ptr noundef nonnull @.str, i32 noundef 276) #8
  br label %12

12:                                               ; preds = %9, %1
  ret void
}